; Function Attrs: mustprogress nofree norecurse nosync nounwind null_pointer_is_valid sspstrong willreturn memory(argmem: read) uwtable
define noundef zeroext i1 @wtap_uses_lua_filehandler(ptr noundef readonly captures(address_is_null) %0) local_unnamed_addr #6 {
  %.not = icmp eq ptr %0, null
  br i1 %.not, label %5, label %2

2:                                                ; preds = %1
  %3 = getelementptr inbounds nuw i8, ptr %0, i64 104
  %4 = load ptr, ptr %3, align 8
  %.not4 = icmp eq ptr %4, null
  br i1 %.not4, label %5, label %6

5:                                                ; preds = %2, %1
  br label %6

6:                                                ; preds = %2, %5
  %.0 = phi i1 [ false, %5 ], [ true, %2 ]
  ret i1 %.0
}